Certificate:
    Data:
        Version: 3 (0x2)
        Serial Number: 2 (0x2)
    Signature Algorithm: sha1WithRSAEncryption
        Issuer: O=eScienceCenter, CN=eScienceCenterSimpleCA
        Validity
            Not Before: Dec  4 14:49:06 2017 GMT
            Not After : Dec  2 14:49:06 2027 GMT
        Subject: O=eScienceCenter, CN=host/gridftp2.xenontest.nlesc.nl
        Subject Public Key Info:
            Public Key Algorithm: rsaEncryption
                Public-Key: (2048 bit)
                Modulus:
                    00:b5:fb:cc:0a:55:75:7a:f7:ef:e2:14:a6:4f:fc:
                    70:97:b9:3f:7a:81:16:3d:b2:f7:28:f6:1b:66:0e:
                    a5:10:1b:c3:9a:eb:e9:f6:a2:70:6e:b4:35:52:48:
                    a2:3c:85:af:73:ca:35:8c:52:c9:b9:9c:0f:6d:79:
                    4b:95:f0:26:73:35:2d:ba:59:58:ae:a3:02:db:7e:
                    7c:ef:3d:7f:ae:6d:64:37:22:25:44:69:a3:e2:43:
                    71:96:09:92:75:60:7d:4c:ad:91:a6:8b:bb:49:ef:
                    09:20:ff:f8:3b:65:85:26:1b:c9:19:a2:f3:ab:39:
                    be:64:bf:2a:11:a9:e6:ea:86:b7:84:58:6a:b9:3d:
                    f9:54:9d:ac:d2:05:05:d5:1c:14:41:5e:5f:b5:f2:
                    33:18:7a:42:f8:03:5a:e2:5e:68:48:b0:5c:a8:bc:
                    4e:ae:4c:79:5c:a6:ea:c3:7c:db:18:47:99:9b:2c:
                    e6:26:8c:0d:8e:bf:4d:2f:38:fa:56:b7:00:21:c1:
                    3f:a1:fe:32:0d:9b:7f:df:f1:a3:bc:7d:2d:d8:40:
                    2f:34:29:be:00:24:a5:7d:fb:ae:20:f9:d7:df:b3:
                    6e:6b:65:86:03:a2:0a:f8:8b:e2:02:87:a6:59:ea:
                    db:c3:8d:55:93:c0:a4:c5:19:42:e2:01:35:8e:71:
                    2a:8d
                Exponent: 65537 (0x10001)
        X509v3 extensions:
            Netscape Cert Type: 
                SSL Client, SSL Server, S/MIME, Object Signing
    Signature Algorithm: sha1WithRSAEncryption
         74:e8:57:6d:17:46:b4:f5:aa:01:09:96:28:34:78:46:b1:cf:
         43:ed:c3:b0:e5:bc:ba:34:9c:0f:cc:c1:83:d6:2b:e5:de:c1:
         aa:56:5e:0d:6e:f5:81:32:d4:13:a6:13:c7:fd:97:fa:3b:c7:
         01:9f:4d:10:32:01:8b:7a:b8:86:8a:d7:52:d1:39:a1:18:cd:
         c9:e5:fc:1d:c4:de:b4:5c:89:d0:ae:fd:a8:aa:6b:d5:db:42:
         f6:1a:31:c1:3f:86:4a:33:c1:fc:a3:9b:0b:79:f5:02:bb:85:
         90:fd:8f:02:91:fd:31:66:f2:41:91:0a:7a:1e:92:2f:8d:79:
         52:ba:0a:f7:ad:a8:7f:6f:28:9b:3d:cf:d0:13:fb:f1:ee:cd:
         7e:92:87:95:9c:39:36:8c:ff:22:aa:b3:63:c2:d8:56:0c:61:
         09:29:c3:5a:02:98:a5:f2:31:ae:da:c4:4d:51:43:de:5f:a6:
         ba:bb:02:9f:b7:35:a3:33:02:d1:f7:39:8d:25:68:45:a0:42:
         56:33:4d:c7:fc:34:f7:93:f7:d8:b3:91:b8:d4:59:4f:d4:1c:
         22:4d:00:e5:83:f0:87:a6:86:20:ee:db:eb:1e:63:4e:fa:4d:
         a7:7c:9d:73:03:8e:8c:1d:db:ac:92:68:3f:e4:82:62:97:c7:
         4a:0c:ef:ac:b7:85:ed:22:b5:ea:77:21:63:22:f1:22:a4:3e:
         fb:05:ee:16:a5:d9:fc:50:c2:be:37:e3:0b:87:6a:28:aa:df:
         3d:08:6c:6a:65:b0:da:d4:82:fa:b1:e5:8f:62:63:45:6b:cd:
         85:7d:64:df:79:37:55:1a:7a:f3:d6:fa:a6:49:35:64:5c:2f:
         6d:f1:ba:25:75:c0:03:3a:b7:80:1f:5c:ea:48:24:8d:a4:c2:
         1c:2b:de:07:b7:af:05:c0:1d:b0:dd:8f:c5:0f:3b:5f:8d:bd:
         97:05:46:08:cd:f2:3f:90:b5:9a:c1:14:9b:ea:67:7b:2b:e5:
         41:8d:b0:e6:47:d5:79:14:a6:11:df:04:36:c4:39:20:cd:8c:
         7e:7b:b9:4d:e5:7a:82:99:e8:06:15:8d:e6:b3:50:d6:99:23:
         4f:d7:6d:df:87:c6:cd:02:da:6a:33:64:eb:c6:ad:76:38:eb:
         04:e1:d5:0e:35:ec:03:f1:39:89:a9:30:07:16:ba:a1:67:c4:
         c7:0a:4b:48:d1:ec:20:cf:b1:cc:56:a5:0a:d2:0e:30:1a:52:
         c1:65:1b:1e:f7:eb:e4:35:c1:ae:9f:f0:d5:19:a2:1f:8f:c6:
         8d:ac:06:b7:36:c1:0f:54:49:88:9e:bd:5a:cf:0f:99:cf:f2:
         64:88:2f:d5:4c:58:73:c7
-----BEGIN CERTIFICATE-----
MIIEDjCCAfagAwIBAgIBAjANBgkqhkiG9w0BAQUFADA6MRcwFQYDVQQKDA5lU2Np
ZW5jZUNlbnRlcjEfMB0GA1UEAwwWZVNjaWVuY2VDZW50ZXJTaW1wbGVDQTAeFw0x
NzEyMDQxNDQ5MDZaFw0yNzEyMDIxNDQ5MDZaMEQxFzAVBgNVBAoMDmVTY2llbmNl
Q2VudGVyMSkwJwYDVQQDDCBob3N0L2dyaWRmdHAyLnhlbm9udGVzdC5ubGVzYy5u
bDCCASIwDQYJKoZIhvcNAQEBBQADggEPADCCAQoCggEBALX7zApVdXr37+IUpk/8
cJe5P3qBFj2y9yj2G2YOpRAbw5rr6faicG60NVJIojyFr3PKNYxSybmcD215S5Xw
JnM1LbpZWK6jAtt+fO89f65tZDciJURpo+JDcZYJknVgfUytkaaLu0nvCSD/+Dtl
hSYbyRmi86s5vmS/KhGp5uqGt4RYark9+VSdrNIFBdUcFEFeX7XyMxh6QvgDWuJe
aEiwXKi8Tq5MeVym6sN82xhHmZss5iaMDY6/TS84+la3ACHBP6H+Mg2bf9/xo7x9
LdhALzQpvgAkpX37riD519+zbmtlhgOiCviL4gKHplnq28ONVZPApMUZQuIBNY5x
Ko0CAwEAAaMVMBMwEQYJYIZIAYb4QgEBBAQDAgTwMA0GCSqGSIb3DQEBBQUAA4IC
AQB06FdtF0a09aoBCZYoNHhGsc9D7cOw5by6NJwPzMGD1ivl3sGqVl4NbvWBMtQT
phPH/Zf6O8cBn00QMgGLeriGitdS0TmhGM3J5fwdxN60XInQrv2oqmvV20L2GjHB
P4ZKM8H8o5sLefUCu4WQ/Y8Ckf0xZvJBkQp6HpIvjXlSugr3rah/byibPc/QE/vx
7s1+koeVnDk2jP8iqrNjwthWDGEJKcNaApil8jGu2sRNUUPeX6a6uwKftzWjMwLR
9zmNJWhFoEJWM03H/DT3k/fYs5G41FlP1BwiTQDlg/CHpoYg7tvrHmNO+k2nfJ1z
A46MHduskmg/5IJil8dKDO+st4XtIrXqdyFjIvEipD77Be4Wpdn8UMK+N+MLh2oo
qt89CGxqZbDa1IL6seWPYmNFa82FfWTfeTdVGnrz1vqmSTVkXC9t8boldcADOreA
H1zqSCSNpMIcK94Ht68FwB2w3Y/FDztfjb2XBUYIzfI/kLWawRSb6md7K+VBjbDm
R9V5FKYR3wQ2xDkgzYx+e7lN5XqCmegGFY3ms1DWmSNP123fh8bNAtpqM2Trxq12
OOsE4dUONewD8TmJqTAHFrqhZ8THCktI0ewgz7HMVqUK0g4wGlLBZRse9+vkNcGu
n/DVGaIfj8aNrAa3NsEPVEmInr1azw+Zz/JkiC/VTFhzxw==
-----END CERTIFICATE-----
