Certificate:
    Data:
        Version: 3 (0x2)
        Serial Number: 1 (0x1)
    Signature Algorithm: sha1WithRSAEncryption
        Issuer: O=eScienceCenter, CN=eScienceCenterSimpleCA
        Validity
            Not Before: Dec  4 14:49:06 2017 GMT
            Not After : Dec  2 14:49:06 2027 GMT
        Subject: O=eScienceCenter, CN=host/gridftp1.xenontest.nlesc.nl
        Subject Public Key Info:
            Public Key Algorithm: rsaEncryption
                Public-Key: (2048 bit)
                Modulus:
                    00:be:3a:35:d7:cd:63:80:cf:e6:9e:37:10:26:a4:
                    4d:eb:92:fc:65:a7:15:c7:fe:d8:6b:81:7e:64:fc:
                    47:d8:55:9c:b6:66:94:97:f6:eb:d6:3d:4b:60:d1:
                    ab:f7:3a:61:5b:37:57:f1:bd:86:16:5d:c9:34:7e:
                    94:ce:4e:ed:f9:ce:c5:c5:ea:57:a6:43:ab:e2:ab:
                    b1:e1:8e:e6:fd:48:66:f2:20:9f:54:b9:9b:d7:03:
                    ad:01:41:fc:5f:a7:be:4a:12:ad:7d:62:c4:ea:47:
                    29:18:28:78:d7:db:65:2f:10:b2:13:48:e8:87:88:
                    12:bd:da:f7:fc:67:3a:3e:4e:77:10:8e:c8:22:42:
                    78:96:a2:64:78:c4:05:ff:ff:da:c3:e9:23:dc:aa:
                    c5:48:ae:83:13:5c:a4:52:db:d0:b1:74:6a:0f:7c:
                    69:63:45:8c:e6:95:84:8e:6c:e7:88:c0:09:53:fc:
                    8b:10:5b:63:2a:0d:de:8b:ad:66:d7:36:b4:79:a1:
                    68:32:fc:1d:b5:73:1b:e5:b1:d7:37:86:b5:9e:e6:
                    a0:f2:32:a6:ae:63:4f:af:bb:61:b9:eb:5e:19:9a:
                    08:ac:58:4e:0f:9a:26:d6:f3:4a:b7:5d:d7:c1:79:
                    0c:7b:30:07:74:ec:eb:b4:c9:29:87:c4:7c:a2:e0:
                    8b:a3
                Exponent: 65537 (0x10001)
        X509v3 extensions:
            Netscape Cert Type: 
                SSL Client, SSL Server, S/MIME, Object Signing
    Signature Algorithm: sha1WithRSAEncryption
         7f:b1:f9:d3:7d:0d:86:aa:56:89:9f:26:de:12:32:3f:ba:38:
         f7:e3:98:68:fc:7b:c0:2f:fb:2b:74:2a:ea:d2:94:ad:45:86:
         b9:e2:68:49:9e:a3:9a:4c:b7:65:cb:58:2f:b5:87:1d:6b:cc:
         91:1d:ad:06:09:26:85:b0:c9:40:7b:e1:81:10:2d:c2:9c:25:
         c0:b7:df:02:f5:f4:1a:04:6e:04:52:93:7f:02:ca:4c:f3:4f:
         23:f1:75:95:91:c6:2d:60:3a:09:42:51:a4:d9:e4:8a:3a:37:
         fa:a9:32:7c:47:54:e7:c0:13:0e:7f:44:01:af:13:b6:1e:af:
         2f:1d:d2:b9:05:97:a9:0d:ab:a1:a5:21:d4:c5:04:3e:36:87:
         e8:70:36:6c:26:77:54:06:82:bf:a4:0d:b8:fa:bb:e5:fb:c4:
         60:0f:10:c9:51:ca:a1:bc:62:a9:89:35:b7:a3:28:0e:dd:3c:
         19:ed:06:15:20:91:0c:78:3f:79:ce:7b:e4:70:a6:9e:2c:eb:
         23:6d:5e:64:c9:cc:e9:c9:80:45:9e:2a:d4:fe:f4:7c:25:52:
         c5:8b:3a:e9:01:91:89:1a:3a:4c:a4:1e:cb:f2:62:e9:e8:35:
         55:b8:94:7b:a9:4e:f4:d8:0f:8a:f8:d7:f7:82:c4:75:e6:92:
         91:9b:4e:85:40:d0:e7:d4:e2:25:47:15:dc:1d:65:99:6f:dd:
         e1:c7:2d:bd:86:18:de:25:99:cb:de:2e:1c:bd:ca:b3:c7:d7:
         a7:e7:95:7e:4d:f3:7f:58:28:db:57:ba:2a:c9:5f:f3:8a:bb:
         69:56:01:88:67:41:aa:d0:fa:f1:2e:a3:10:47:69:89:eb:e6:
         64:5b:8e:b9:fb:66:14:71:2c:e1:1a:a6:7b:eb:fd:f4:a4:0b:
         d9:9f:8f:76:72:98:7d:9d:d5:f6:f7:be:22:a1:ff:f4:ee:65:
         48:dd:bc:a6:2b:70:1c:8e:99:f0:a3:a9:84:11:c1:5d:8a:58:
         6e:ed:86:95:84:e1:72:2f:3f:d8:7d:23:ba:45:ed:57:7e:c8:
         ec:36:ec:28:c0:3c:3d:2d:11:27:4b:32:f4:86:15:7e:95:ea:
         c5:95:71:73:ad:50:2b:cf:13:27:c0:a2:36:99:30:02:4a:3b:
         3b:d4:42:9e:f1:a8:37:2d:d0:0c:bd:b5:6a:7d:4e:4d:02:9d:
         d3:29:b7:11:d9:aa:92:4a:e0:e0:60:f0:62:f0:7d:c4:44:79:
         90:e2:44:d2:81:33:51:9d:46:69:cd:65:ab:d6:1f:57:bf:70:
         59:e5:1c:ab:ed:a0:49:a9:c3:84:04:97:55:b3:05:65:50:18:
         37:0f:18:f4:65:64:c0:b5
-----BEGIN CERTIFICATE-----
MIIEDjCCAfagAwIBAgIBATANBgkqhkiG9w0BAQUFADA6MRcwFQYDVQQKDA5lU2Np
ZW5jZUNlbnRlcjEfMB0GA1UEAwwWZVNjaWVuY2VDZW50ZXJTaW1wbGVDQTAeFw0x
NzEyMDQxNDQ5MDZaFw0yNzEyMDIxNDQ5MDZaMEQxFzAVBgNVBAoMDmVTY2llbmNl
Q2VudGVyMSkwJwYDVQQDDCBob3N0L2dyaWRmdHAxLnhlbm9udGVzdC5ubGVzYy5u
bDCCASIwDQYJKoZIhvcNAQEBBQADggEPADCCAQoCggEBAL46NdfNY4DP5p43ECak
TeuS/GWnFcf+2GuBfmT8R9hVnLZmlJf269Y9S2DRq/c6YVs3V/G9hhZdyTR+lM5O
7fnOxcXqV6ZDq+KrseGO5v1IZvIgn1S5m9cDrQFB/F+nvkoSrX1ixOpHKRgoeNfb
ZS8QshNI6IeIEr3a9/xnOj5OdxCOyCJCeJaiZHjEBf//2sPpI9yqxUiugxNcpFLb
0LF0ag98aWNFjOaVhI5s54jACVP8ixBbYyoN3outZtc2tHmhaDL8HbVzG+Wx1zeG
tZ7moPIypq5jT6+7YbnrXhmaCKxYTg+aJtbzSrdd18F5DHswB3Ts67TJKYfEfKLg
i6MCAwEAAaMVMBMwEQYJYIZIAYb4QgEBBAQDAgTwMA0GCSqGSIb3DQEBBQUAA4IC
AQB/sfnTfQ2GqlaJnybeEjI/ujj345ho/HvAL/srdCrq0pStRYa54mhJnqOaTLdl
y1gvtYcda8yRHa0GCSaFsMlAe+GBEC3CnCXAt98C9fQaBG4EUpN/AspM808j8XWV
kcYtYDoJQlGk2eSKOjf6qTJ8R1TnwBMOf0QBrxO2Hq8vHdK5BZepDauhpSHUxQQ+
NofocDZsJndUBoK/pA24+rvl+8RgDxDJUcqhvGKpiTW3oygO3TwZ7QYVIJEMeD95
znvkcKaeLOsjbV5kyczpyYBFnirU/vR8JVLFizrpAZGJGjpMpB7L8mLp6DVVuJR7
qU702A+K+Nf3gsR15pKRm06FQNDn1OIlRxXcHWWZb93hxy29hhjeJZnL3i4cvcqz
x9en55V+TfN/WCjbV7oqyV/zirtpVgGIZ0Gq0PrxLqMQR2mJ6+ZkW465+2YUcSzh
GqZ76/30pAvZn492cph9ndX2974iof/07mVI3bymK3Acjpnwo6mEEcFdilhu7YaV
hOFyLz/YfSO6Re1XfsjsNuwowDw9LREnSzL0hhV+lerFlXFzrVArzxMnwKI2mTAC
Sjs71EKe8ag3LdAMvbVqfU5NAp3TKbcR2aqSSuDgYPBi8H3ERHmQ4kTSgTNRnUZp
zWWr1h9Xv3BZ5Ryr7aBJqcOEBJdVswVlUBg3Dxj0ZWTAtQ==
-----END CERTIFICATE-----
