Certificate:
    Data:
        Version: 3 (0x2)
        Serial Number: 3 (0x3)
    Signature Algorithm: sha1WithRSAEncryption
        Issuer: O=eScienceCenter, CN=eScienceCenterSimpleCA
        Validity
            Not Before: Dec  4 14:49:06 2017 GMT
            Not After : Dec  2 14:49:06 2027 GMT
        Subject: O=eScienceCenter, OU=eScienceCenterSimpleCA, CN=xenon
        Subject Public Key Info:
            Public Key Algorithm: rsaEncryption
                Public-Key: (2048 bit)
                Modulus:
                    00:c4:fa:95:a0:6f:7b:e1:92:2a:c6:8f:ba:48:c4:
                    89:21:d1:26:6a:a9:5b:36:ee:f3:ab:f8:b3:9d:22:
                    9c:d8:8d:1d:6e:8c:56:4b:25:2b:bf:53:fc:f5:63:
                    db:4b:27:3b:93:2a:9b:c0:d5:7e:eb:9d:48:07:84:
                    5c:14:b8:d6:27:c2:d2:ff:f8:4f:96:b7:3a:de:a6:
                    72:7a:f6:7b:bb:7c:ce:69:50:05:43:12:2f:dd:70:
                    ea:6f:e4:65:b3:91:5c:9b:c6:50:08:6c:1c:be:f4:
                    be:81:b3:89:67:91:89:df:0a:33:75:7d:a5:5d:6c:
                    af:00:9c:aa:d9:8a:f1:c0:65:8c:ae:b9:e3:c9:b7:
                    c6:ba:17:22:2f:7b:34:75:d2:62:32:d1:c4:23:4d:
                    36:a4:80:49:ee:8b:32:95:39:5e:86:6f:63:51:a6:
                    f7:d4:ed:41:f0:cd:61:ea:ac:06:82:ed:a0:28:0f:
                    0c:aa:ac:a6:7f:63:9b:0a:64:75:e1:f5:09:2d:48:
                    cc:4f:ff:f0:7a:32:3d:72:70:bd:df:1c:5d:46:a4:
                    00:c7:dd:20:0f:d2:51:f1:f4:40:f9:75:a2:7a:d3:
                    a8:84:16:63:a7:83:e2:76:91:ed:18:cb:ef:20:cc:
                    8e:a9:d6:5b:3a:7c:03:98:b2:f5:01:1a:0c:05:ba:
                    e4:59
                Exponent: 65537 (0x10001)
        X509v3 extensions:
            Netscape Cert Type: 
                SSL Client, SSL Server, S/MIME, Object Signing
    Signature Algorithm: sha1WithRSAEncryption
         75:46:c6:8c:c9:7a:30:b4:29:40:4e:1e:3b:a2:20:89:fb:17:
         c6:33:2f:f7:a5:86:9c:3e:33:7d:ea:6a:f4:9a:29:22:20:53:
         01:43:c2:db:79:02:e0:a3:57:d7:eb:18:49:58:b7:e1:76:ee:
         a7:bf:07:16:87:9f:06:da:0f:5f:fa:0e:72:20:92:7a:a2:5c:
         7e:26:85:ac:6a:17:95:0f:67:ca:db:6a:b9:75:a5:e4:57:f6:
         aa:52:f1:7e:7b:84:b7:db:6b:c4:32:f9:e3:40:21:6d:58:bc:
         6f:ab:1b:2d:b8:75:ee:ac:78:13:8c:28:84:68:ea:b9:18:51:
         f3:41:1e:21:08:6f:11:d5:83:39:c7:f3:94:37:14:ac:e8:8f:
         16:4e:f9:f2:b9:0e:63:20:aa:53:fe:19:e5:f8:c0:0b:09:da:
         b6:6e:db:d8:fb:07:4c:ac:53:5a:25:cc:5d:41:7f:05:5b:9a:
         07:4a:ae:fa:c5:9f:dd:1d:e2:a0:f1:54:c5:db:a0:a2:c8:97:
         59:f9:73:4c:cf:63:df:13:c5:3a:48:b1:66:e3:da:2e:f3:5c:
         f6:1d:fc:12:76:dc:0f:76:d1:ab:cd:76:84:c4:85:a8:a8:08:
         47:f0:d5:1c:88:a7:2c:fa:38:27:d0:c3:2c:bb:96:3d:e1:b0:
         49:f9:29:26:31:8e:2b:64:cb:9f:df:a2:c1:53:47:50:79:b9:
         bf:47:7f:75:9d:28:e0:64:63:c5:8d:63:8a:6b:ad:d6:44:95:
         94:50:ea:e0:20:3c:9b:dc:5c:34:07:5c:0e:68:ab:a3:77:a8:
         b4:d2:8b:2a:0a:b2:16:a7:4e:99:04:24:2b:d4:b2:0f:d6:38:
         d7:46:9e:3d:7d:f6:bc:59:e4:5a:4e:f8:bc:a1:ed:7a:06:b8:
         cd:31:af:47:e0:5c:d5:e5:9e:0a:4a:91:fe:d9:e0:93:49:66:
         20:ec:8b:82:27:94:ab:9e:ea:cf:9c:cf:0d:dd:98:89:53:08:
         40:cf:23:aa:7a:3c:30:93:1b:25:a6:c5:78:d5:ba:99:8a:6d:
         00:36:0d:dc:59:c9:e1:41:1d:57:52:ca:6d:45:d6:63:bd:52:
         cd:a6:58:5c:22:86:69:e2:73:37:b8:f1:3b:0a:d8:36:1e:fe:
         40:f3:6f:34:64:a6:c9:1a:65:b9:d1:32:7e:e4:5d:82:54:a6:
         31:45:5a:9f:01:fd:05:5f:77:f5:87:c8:42:ad:26:d7:fe:58:
         ce:fe:12:ed:0e:26:92:e6:3e:18:06:90:0c:90:62:31:23:a1:
         b2:fa:91:66:0b:ca:6d:cc:ee:0a:38:a1:f4:bb:0b:bd:34:0c:
         e1:92:6c:e0:98:4f:60:de
-----BEGIN CERTIFICATE-----
MIIEFDCCAfygAwIBAgIBAzANBgkqhkiG9w0BAQUFADA6MRcwFQYDVQQKDA5lU2Np
ZW5jZUNlbnRlcjEfMB0GA1UEAwwWZVNjaWVuY2VDZW50ZXJTaW1wbGVDQTAeFw0x
NzEyMDQxNDQ5MDZaFw0yNzEyMDIxNDQ5MDZaMEoxFzAVBgNVBAoMDmVTY2llbmNl
Q2VudGVyMR8wHQYDVQQLDBZlU2NpZW5jZUNlbnRlclNpbXBsZUNBMQ4wDAYDVQQD
DAV4ZW5vbjCCASIwDQYJKoZIhvcNAQEBBQADggEPADCCAQoCggEBAMT6laBve+GS
KsaPukjEiSHRJmqpWzbu86v4s50inNiNHW6MVkslK79T/PVj20snO5Mqm8DVfuud
SAeEXBS41ifC0v/4T5a3Ot6mcnr2e7t8zmlQBUMSL91w6m/kZbORXJvGUAhsHL70
voGziWeRid8KM3V9pV1srwCcqtmK8cBljK6548m3xroXIi97NHXSYjLRxCNNNqSA
Se6LMpU5XoZvY1Gm99TtQfDNYeqsBoLtoCgPDKqspn9jmwpkdeH1CS1IzE//8Hoy
PXJwvd8cXUakAMfdIA/SUfH0QPl1onrTqIQWY6eD4naR7RjL7yDMjqnWWzp8A5iy
9QEaDAW65FkCAwEAAaMVMBMwEQYJYIZIAYb4QgEBBAQDAgTwMA0GCSqGSIb3DQEB
BQUAA4ICAQB1RsaMyXowtClATh47oiCJ+xfGMy/3pYacPjN96mr0mikiIFMBQ8Lb
eQLgo1fX6xhJWLfhdu6nvwcWh58G2g9f+g5yIJJ6olx+JoWsaheVD2fK22q5daXk
V/aqUvF+e4S322vEMvnjQCFtWLxvqxstuHXurHgTjCiEaOq5GFHzQR4hCG8R1YM5
x/OUNxSs6I8WTvnyuQ5jIKpT/hnl+MALCdq2btvY+wdMrFNaJcxdQX8FW5oHSq76
xZ/dHeKg8VTF26CiyJdZ+XNMz2PfE8U6SLFm49ou81z2HfwSdtwPdtGrzXaExIWo
qAhH8NUciKcs+jgn0MMsu5Y94bBJ+SkmMY4rZMuf36LBU0dQebm/R391nSjgZGPF
jWOKa63WRJWUUOrgIDyb3Fw0B1wOaKujd6i00osqCrIWp06ZBCQr1LIP1jjXRp49
ffa8WeRaTvi8oe16BrjNMa9H4FzV5Z4KSpH+2eCTSWYg7IuCJ5SrnurPnM8N3ZiJ
UwhAzyOqejwwkxslpsV41bqZim0ANg3cWcnhQR1XUsptRdZjvVLNplhcIoZp4nM3
uPE7Ctg2Hv5A8280ZKbJGmW50TJ+5F2CVKYxRVqfAf0FX3f1h8hCrSbX/ljO/hLt
DiaS5j4YBpAMkGIxI6Gy+pFmC8ptzO4KOKH0uwu9NAzhkmzgmE9g3g==
-----END CERTIFICATE-----
